target datalayout = "e-m:e-p270:32:32-p271:32:32-p272:64:64-i64:64-i128:128-f80:128-n8:16:32:64-S128"
target triple = "x86_64-pc-linux-gnu"

%class.CodeCacheUnloadingTask = type { i8, i32, ptr, ptr }

; Function Attrs: mustprogress nounwind uwtable
define hidden void @_ZN22CodeCacheUnloadingTask4workEj(ptr noundef nonnull align 8 dereferenceable(24) %0, i32 noundef %1) #1 align 2 {
  %3 = alloca ptr, align 8
  %4 = alloca i32, align 4
  %5 = alloca i32, align 4
  %6 = alloca [16 x ptr], align 16
  %7 = alloca i32, align 4
  store ptr %0, ptr %3, align 8
  store i32 %1, ptr %4, align 4
  %8 = load ptr, ptr %3, align 8
  %9 = load i32, ptr %4, align 4
  %10 = icmp eq i32 %9, 0
  br i1 %10, label %11, label %22

11:                                               ; preds = %2
  %12 = getelementptr inbounds %class.CodeCacheUnloadingTask, ptr %8, i32 0, i32 2
  %13 = load ptr, ptr %12, align 8
  %14 = icmp ne ptr %13, null
  br i1 %14, label %15, label %22

15:                                               ; preds = %11
  %16 = getelementptr inbounds %class.CodeCacheUnloadingTask, ptr %8, i32 0, i32 2
  %17 = load ptr, ptr %16, align 8
  %18 = getelementptr inbounds %class.CodeCacheUnloadingTask, ptr %8, i32 0, i32 0
  %19 = load i8, ptr %18, align 8
  %20 = trunc i8 %19 to i1
  call void @_ZN7nmethod12do_unloadingEb(ptr noundef nonnull align 8 dereferenceable(214) %17, i1 noundef zeroext %20)
  %21 = getelementptr inbounds %class.CodeCacheUnloadingTask, ptr %8, i32 0, i32 2
  store ptr null, ptr %21, align 8
  br label %22

22:                                               ; preds = %15, %11, %2
  br label %23

23:                                               ; preds = %44, %22
  %24 = getelementptr inbounds [16 x ptr], ptr %6, i64 0, i64 0
  call void @_ZN22CodeCacheUnloadingTask14claim_nmethodsEPP7nmethodPi(ptr noundef nonnull align 8 dereferenceable(24) %8, ptr noundef %24, ptr noundef %5)
  %25 = load i32, ptr %5, align 4
  %26 = icmp eq i32 %25, 0
  br i1 %26, label %27, label %28

27:                                               ; preds = %23
  br label %45

28:                                               ; preds = %23
  store i32 0, ptr %7, align 4
  br label %29

29:                                               ; preds = %41, %28
  %30 = load i32, ptr %7, align 4
  %31 = load i32, ptr %5, align 4
  %32 = icmp slt i32 %30, %31
  br i1 %32, label %33, label %44

33:                                               ; preds = %29
  %34 = load i32, ptr %7, align 4
  %35 = sext i32 %34 to i64
  %36 = getelementptr inbounds [16 x ptr], ptr %6, i64 0, i64 %35
  %37 = load ptr, ptr %36, align 8
  %38 = getelementptr inbounds %class.CodeCacheUnloadingTask, ptr %8, i32 0, i32 0
  %39 = load i8, ptr %38, align 8
  %40 = trunc i8 %39 to i1
  call void @_ZN7nmethod12do_unloadingEb(ptr noundef nonnull align 8 dereferenceable(214) %37, i1 noundef zeroext %40)
  br label %41

41:                                               ; preds = %33
  %42 = load i32, ptr %7, align 4
  %43 = add nsw i32 %42, 1
  store i32 %43, ptr %7, align 4
  br label %29, !llvm.loop !10

44:                                               ; preds = %29
  br label %23, !llvm.loop !11

45:                                               ; preds = %27
  ret void
}