; Function Attrs: mustprogress nounwind uwtable
define hidden void @_ZN22CodeCacheUnloadingTask4workEj(ptr noundef nonnull align 8 dereferenceable(24) %0, i32 noundef %1) local_unnamed_addr #0 align 2 {
  %3 = alloca i32, align 4
  %4 = alloca [16 x ptr], align 16
  %5 = icmp eq i32 %1, 0
  br i1 %5, label %6, label %12

6:                                                ; preds = %2
  %7 = getelementptr inbounds i8, ptr %0, i64 8
  %8 = load ptr, ptr %7, align 8
  %.not = icmp eq ptr %8, null
  br i1 %.not, label %12, label %9

9:                                                ; preds = %6
  %10 = load i8, ptr %0, align 8
  %11 = trunc i8 %10 to i1
  tail call void @_ZN7nmethod12do_unloadingEb(ptr noundef nonnull align 8 dereferenceable(214) %8, i1 noundef zeroext %11) #3
  store ptr null, ptr %7, align 8
  br label %12

12:                                               ; preds = %9, %6, %2
  call void @_ZN22CodeCacheUnloadingTask14claim_nmethodsEPP7nmethodPi(ptr noundef nonnull align 8 dereferenceable(24) %0, ptr noundef nonnull %4, ptr noundef nonnull %3)
  %13 = load i32, ptr %3, align 4
  %14 = icmp eq i32 %13, 0
  br i1 %14, label %._crit_edge, label %.preheader

.loopexit:                                        ; preds = %.lr.ph, %.preheader
  call void @_ZN22CodeCacheUnloadingTask14claim_nmethodsEPP7nmethodPi(ptr noundef nonnull align 8 dereferenceable(24) %0, ptr noundef nonnull %4, ptr noundef nonnull %3)
  %15 = load i32, ptr %3, align 4
  %16 = icmp eq i32 %15, 0
  br i1 %16, label %._crit_edge, label %.preheader, !llvm.loop !13

.preheader:                                       ; preds = %12, %.loopexit
  %17 = phi i32 [ %15, %.loopexit ], [ %13, %12 ]
  %18 = icmp sgt i32 %17, 0
  br i1 %18, label %.lr.ph.preheader, label %.loopexit

.lr.ph.preheader:                                 ; preds = %.preheader
  %wide.trip.count = zext nneg i32 %17 to i64
  br label %.lr.ph

.lr.ph:                                           ; preds = %.lr.ph.preheader, %.lr.ph
  %indvars.iv = phi i64 [ 0, %.lr.ph.preheader ], [ %indvars.iv.next, %.lr.ph ]
  %19 = getelementptr inbounds [16 x ptr], ptr %4, i64 0, i64 %indvars.iv
  %20 = load ptr, ptr %19, align 8
  %21 = load i8, ptr %0, align 8
  %22 = trunc i8 %21 to i1
  tail call void @_ZN7nmethod12do_unloadingEb(ptr noundef nonnull align 8 dereferenceable(214) %20, i1 noundef zeroext %22) #3
  %indvars.iv.next = add nuw nsw i64 %indvars.iv, 1
  %exitcond.not = icmp eq i64 %indvars.iv.next, %wide.trip.count
  br i1 %exitcond.not, label %.loopexit, label %.lr.ph, !llvm.loop !14

._crit_edge:                                      ; preds = %.loopexit, %12
  ret void
}